(dp0
I512
(VAustin, TX
p1
F30.267153
F-97.7430608
tp2
sI513
(VCincinnati, OH
p3
F39.1031182
F-84.5120196
tp4
sI514
(VMontreal, QC
p5
F45.5086699
F-73.55399249999999
tp6
sI515
(VDes Moines, IA
p7
F41.6005448
F-93.6091064
tp8
sI516
(VLynbrook, NY
p9
F40.6548253
F-73.67179689999999
tp10
sI517
(VLansing, MI
p11
F42.732535
F-84.5555347
tp12
sI518
(VAlbany, NY
p13
F42.6525793
F-73.7562317
tp14
sI519
(VSaint Marys, ON
p15
F43.2595868
F-81.140653
tp16
sI520
(VTucson, AZ
p17
F32.2217429
F-110.926479
tp18
sI989
(VSaginaw, MI
p19
F43.4194699
F-83.9508068
tp20
sI530
(VChico, CA
p21
F39.7284944
F-121.8374777
tp22
sI716
(VBuffalo, NY
p23
F42.88644679999999
F-78.8783689
tp24
sI857
(VQuincy, MA
p25
F42.2528772
F-71.0022705
tp26
sI772
(VPort Saint Lucie, FL
p27
F27.2758333
F-80.35499999999999
tp28
sI539
(VTulsa, OK
p29
F36.1539816
F-95.99277500000001
tp30
sI540
(VRoanoke, VA
p31
F37.2709704
F-79.9414266
tp32
sI541
(VEugene, OR
p33
F44.0520691
F-123.0867536
tp34
sI832
(VHouston, TX
p35
F29.7601927
F-95.36938959999999
tp36
sI717
(VLancaster, PA
p37
F40.0378755
F-76.3055144
tp38
sI859
(VLexington, KY
p39
F38.0405837
F-84.5037164
tp40
sI774
(VNorthboro, MA
p41
F42.320707
F-71.638274
tp42
sI551
(VJersey city, NJ
p43
F40.72815749999999
F-74.0776417
tp44
sI559
(VFresno, CA
p45
F36.7477272
F-119.7723661
tp46
sI561
(VWest Palm Beach, FL
p47
F26.7153424
F-80.0533746
tp48
sI562
(VLong Beach, CA
p49
F33.768321
F-118.1956168
tp50
sI563
(VDavenport, IA
p51
F41.5236437
F-90.5776367
tp52
sI567
(VNew Riegel, OH
p53
F41.0514438
F-83.318534
tp54
sI570
(VScranton, PA
p55
F41.408969
F-75.66241219999999
tp56
sI571
(VHerndon, VA
p57
F38.9695545
F-77.3860976
tp58
sI573
(VColumbia, MO
p59
F38.9517053
F-92.3340724
tp60
sI574
(VMacy, IN
p61
F40.95920900000001
F-86.12721839999999
tp62
sI575
(VEagle Nest, NM
p63
F36.554754
F-105.2636179
tp64
sI718
(VBrooklyn, NY
p65
F40.6528762
F-73.95949399999999
tp66
sI864
(VGreenville, SC
p67
F34.85261759999999
F-82.3940104
tp68
sI779
(VRockford, IL
p69
F42.2711311
F-89.0939952
tp70
sI580
(VLawton, OK
p71
F34.6035669
F-98.39592909999999
tp72
sI585
(VRochester, NY
p73
F43.16103
F-77.6109219
tp74
sI586
(VRoseville, MI
p75
F42.4972583
F-82.9371409
tp76
sI781
(VLynn, MA
p77
F42.46676300000001
F-70.9494938
tp78
sI952
(VMinneapolis, MN
p79
F44.983334
F-93.26666999999999
tp80
sI601
(VJackson, MS
p81
F32.2987573
F-90.1848103
tp82
sI602
(VPhoenix, AZ
p83
F33.4483771
F-112.0740373
tp84
sI603
(VManchester, NH
p85
F42.9956397
F-71.4547891
tp86
sI604
(VNew Westminister, BC
p87
F49.2100859
F-122.917209
tp88
sI605
(VSioux Falls, SD
p89
F43.5499749
F-96.700327
tp90
sI606
(VLondon, KY
p91
F37.1289771
F-84.08326459999999
tp92
sI607
(VBinghamton, NY
p93
F42.09868669999999
F-75.91797380000001
tp94
sI608
(VMadison, WI
p95
F43.0730517
F-89.4012302
tp96
sI609
(VAtlantic city, NJ
p97
F39.3642834
F-74.4229266
tp98
sI610
(VReading, PA
p99
F40.3356483
F-75.9268747
tp100
sI612
(VMinneapolis, MN
p101
F44.983334
F-93.26666999999999
tp102
sI613
(VAdolphustown, ON
p103
F44.06373
F-77.00655990000001
tp104
sI614
(VColumbus, OH
p105
F39.9611755
F-82.99879419999999
tp106
sI615
(VNashville, TN
p107
F36.1666667
F-86.7833333
tp108
sI616
(VGrand Rapids, MI
p109
F42.9633599
F-85.6680863
tp110
sI617
(VBoston, MA
p111
F42.3584308
F-71.0597732
tp112
sI618
(VBelleville, IL
p113
F38.5200504
F-89.9839935
tp114
sI619
(VSan Diego, CA
p115
F32.7153292
F-117.1572551
tp116
sI620
(VHutchinson, KS
p117
F38.0608445
F-97.92977429999999
tp118
sI720
(VDenver, CO
p119
F39.737567
F-104.9847179
tp120
sI623
(VPhoenix, AZ
p121
F33.4483771
F-112.0740373
tp122
sI872
(VChicago, IL
p123
F41.8781136
F-87.6297982
tp124
sI626
(VAlhambra, CA
p125
F34.095287
F-118.1270146
tp126
sI630
(VNaperville, IL
p127
F41.7858629
F-88.1472893
tp128
sI631
(VHuntington, NY
p129
F40.8681539
F-73.425676
tp130
sI636
(VHarvester, MO
p131
F38.742439
F-90.577637
tp132
sI819
(VGentilly, QC
p133
F46.402735
F-72.274846
tp134
sI641
(VMason city, IA
p135
F43.1535728
F-93.20103669999999
tp136
sI646
(VNew York, NY
p137
F40.7143528
F-74.00597309999999
tp138
sI647
(VToronto, ON
p139
F43.653226
F-79.3831843
tp140
sI650
(VSan Mateo, CA
p141
F37.5629917
F-122.3255254
tp142
sI651
(VSaint Paul, MN
p143
F44.9537029
F-93.0899578
tp144
sI937
(VDayton, OH
p145
F39.7589478
F-84.1916069
tp146
sI657
(VWestminster, CA
p147
F33.7513419
F-117.9939921
tp148
sI660
(VSedalia, MO
p149
F38.7044609
F-93.2282613
tp150
sI661
(VBakersfield, CA
p151
F35.3732921
F-119.0187125
tp152
sI662
(VTupelo, MS
p153
F34.2576066
F-88.7033859
tp154
sI671
(VAgana Heights, GU
p155
F13.468194
F144.745573
tp156
sI980
(VCharlotte, NC
p157
F35.2270869
F-80.8431267
tp158
sI727
(VSaint Petersburg, FL
p159
F27.7730556
F-82.64
tp160
sI678
(VAtlanta, GA
p161
F33.7489954
F-84.3879824
tp162
sI681
(VParkersburg, WV
p163
F39.2667418
F-81.56151349999999
tp164
sI682
(VRoanoke, TX
p165
F33.0040126
F-97.2258483
tp166
sI684
(VPago Pago, AS
p167
F-14.27933
F-170.700897
tp168
sI713
(VHouston, TX
p169
F29.7601927
F-95.36938959999999
tp170
sI701
(VFargo, ND
p171
F46.8771863
F-96.7898034
tp172
sI702
(VLas Vegas, NV
p173
F36.114646
F-115.172816
tp174
sI703
(VAlexandria, VA
p175
F38.8048355
F-77.0469214
tp176
sI704
(VCharlotte, NC
p177
F35.2270869
F-80.8431267
tp178
sI705
(VStroud, ON
p179
F44.324416
F-79.61927
tp180
sI706
(VAugusta, GA
p181
F33.474246
F-82.00967
tp182
sI707
(VSanta Rosa, CA
p183
F38.4404674
F-122.7144314
tp184
sI708
(VOak Park, IL
p185
F41.8850317
F-87.7845025
tp186
sI709
(VFermeuse, NL
p187
F46.9755469
F-52.9599495
tp188
sI801
(VOgden, UT
p189
F41.223
F-111.9738304
tp190
sI712
(VSioux city, IA
p191
F42.4999942
F-96.40030689999999
tp192
sI201
(VJersey city, NJ
p193
F40.72815749999999
F-74.0776417
tp194
sI202
(VWashington, DC
p195
F38.8951118
F-77.0363658
tp196
sI203
(VNew Haven, CT
p197
F41.3081527
F-72.9281577
tp198
sI204
(VWinnipeg, MB
p199
F49.8833
F-97.15
tp200
sI205
(VBirmingham, AL
p201
F33.5206608
F-86.80248999999999
tp202
sI206
(VSeattle, WA
p203
F47.6062095
F-122.3320708
tp204
sI207
(VPortland, ME
p205
F43.66147100000001
F-70.2553259
tp206
sI208
(VBoise, ID
p207
F43.613739
F-116.237651
tp208
sI209
(VModesto, CA
p209
F37.63909719999999
F-120.9968782
tp210
sI210
(VSan Antonio, TX
p211
F29.4241219
F-98.49362819999999
tp212
sI803
(VColumbia, SC
p213
F34.0007104
F-81.0348144
tp214
sI212
(VNew York, NY
p215
F40.7143528
F-74.00597309999999
tp216
sI213
(VLos Angeles, CA
p217
F34.0522342
F-118.2436849
tp218
sI214
(VDallas, TX
p219
F32.802955
F-96.769923
tp220
sI215
(VPhiladelphia, PA
p221
F39.952335
F-75.16378900000001
tp222
sI216
(VCleveland, OH
p223
F41.4994954
F-81.6954088
tp224
sI217
(VChampaign, IL
p225
F40.1164204
F-88.2433829
tp226
sI218
(VDuluth, MN
p227
F46.78667189999999
F-92.1004852
tp228
sI219
(VGary, IN
p229
F41.5933696
F-87.3464271
tp230
sI732
(VToms River, NJ
p231
F39.9537358
F-74.1979458
tp232
sI734
(VAnn Arbor, MI
p233
F42.2808256
F-83.7430378
tp234
sI224
(VWauconda, IL
p235
F42.2589122
F-88.1392474
tp236
sI225
(VBaton Rouge, LA
p237
F30.4582829
F-91.1403196
tp238
sI228
(VGulfport, MS
p239
F30.3674198
F-89.0928155
tp240
sI229
(VAlbany, GA
p241
F31.5785074
F-84.15574099999999
tp242
sI231
(VMuskegon, MI
p243
F43.2341813
F-86.24839209999999
tp244
sI234
(VAkron, OH
p245
F41.0814447
F-81.51900529999999
tp246
sI747
(VLos Angeles, CA
p247
F34.0522342
F-118.2436849
tp248
sI978
(VLowell, MA
p249
F42.6334247
F-71.31617179999999
tp250
sI239
(VNaples, FL
p251
F26.1420358
F-81.7948103
tp252
sI240
(VGaithersburg, MD
p253
F39.1434406
F-77.2013705
tp254
sI754
(VFort Lauderdale, FL
p255
F26.1223084
F-80.14337859999999
tp256
sI979
(VBryan, TX
p257
F30.6743643
F-96.3699632
tp258
sI757
(VVirginia Beach, VA
p259
F36.8529263
F-75.97798499999999
tp260
sI248
(VRoyal Oak, MI
p261
F42.4894801
F-83.1446485
tp262
sI724
(VGreensburg, PA
p263
F40.3014581
F-79.5389289
tp264
sI250
(VShalalth, BC
p265
F50.732205
F-122.232405
tp266
sI251
(VMobile, AL
p267
F30.6943566
F-88.04305409999999
tp268
sI252
(VGreenville, NC
p269
F35.612661
F-77.3663538
tp270
sI253
(VTacoma, WA
p271
F47.2528768
F-122.4442906
tp272
sI254
(VWaco, TX
p273
F31.549333
F-97.1466695
tp274
sI256
(VHuntsville, AL
p275
F34.7303688
F-86.5861037
tp276
sI769
(VBailey, MS
p277
F32.4676412
F-88.7228236
tp278
sI770
(VAtlanta, GA
p279
F33.7489954
F-84.3879824
tp280
sI260
(VAuburn, IN
p281
F41.3669942
F-85.0588575
tp282
sI773
(VChicago, IL
p283
F41.8781136
F-87.6297982
tp284
sI262
(VRacine, WI
p285
F42.7261309
F-87.78285230000002
tp286
sI775
(VReno, NV
p287
F39.5296329
F-119.8138027
tp288
sI778
(VPort Coquitlam, BC
p289
F49.254556
F-122.768539
tp290
sI267
(VDoylestown, PA
p291
F40.3101063
F-75.1298939
tp292
sI780
(VEaglesham, AB
p293
F55.782235
F-117.88065
tp294
sI269
(VWoodland, MI
p295
F42.7267014
F-85.1336129
tp296
sI270
(VBowling Green, KY
p297
F36.9903199
F-86.4436018
tp298
sI813
(VTampa, FL
p299
F27.950575
F-82.4571776
tp300
sI785
(VTopeka, KS
p301
F39.0558235
F-95.68901849999999
tp302
sI786
(VMiami, FL
p303
F25.7889689
F-80.2264393
tp304
sI787
(VSalinas, PR
p305
F17.957848
F-66.2605176
tp306
sI276
(VMartinsville, VA
p307
F36.6915262
F-79.8725386
tp308
sI814
(VErie, PA
p309
F42.12922409999999
F-80.085059
tp310
sI281
(VHouston, TX
p311
F29.7601927
F-95.36938959999999
tp312
sI815
(VRockford, IL
p313
F42.2711311
F-89.0939952
tp314
sI947
(VOrtonville, MI
p315
F42.8522506
F-83.4430002
tp316
sI289
(VAurora, ON
p317
F44.00648
F-79.450396
tp318
sI802
(VBurlington, VT
p319
F44.4758825
F-73.21207199999999
tp320
sI731
(VJackson, TN
p321
F35.6145169
F-88.81394689999999
tp322
sI804
(VRichmond, VA
p323
F37.5407246
F-77.4360481
tp324
sI805
(VSanta Barbara, CA
p325
F34.4208305
F-119.6981901
tp326
sI806
(VLubbock, TX
p327
F33.5778631
F-101.8551665
tp328
sI807
(VHudson, ON
p329
F50.083521
F-92.187699
tp330
sI808
(VHonolulu, HI
p331
F21.3069444
F-157.8583333
tp332
sI810
(VFlint, MI
p333
F43.0125274
F-83.6874562
tp334
sI812
(VEvansville, IN
p335
F37.9715592
F-87.5710898
tp336
sI301
(VRockville, MD
p337
F39.0839973
F-77.1527578
tp338
sI302
(VWilmington, DE
p339
F39.7458333
F-75.5466667
tp340
sI303
(VDenver, CO
p341
F39.737567
F-104.9847179
tp342
sI304
(VCharleston, WV
p343
F38.3498195
F-81.6326234
tp344
sI305
(VMiami, FL
p345
F25.7889689
F-80.2264393
tp346
sI306
(VYellow Creek, SK
p347
F52.7495704
F-105.2486885
tp348
sI307
(VCheyenne, WY
p349
F41.1399814
F-104.8202462
tp350
sI308
(VGrand Island, NE
p351
F40.9263957
F-98.3420118
tp352
sI309
(VPeoria, IL
p353
F40.6936488
F-89.5889864
tp354
sI310
(VLos Angeles, CA
p355
F34.0522342
F-118.2436849
tp356
sI312
(VChicago, IL
p357
F41.8781136
F-87.6297982
tp358
sI313
(VDetroit, MI
p359
F42.331427
F-83.0457538
tp360
sI314
(VSaint Louis, MO
p361
F38.6270025
F-90.19940419999999
tp362
sI315
(VSyracuse, NY
p363
F43.0481221
F-76.14742439999999
tp364
sI316
(VWichita, KS
p365
F37.68888889999999
F-97.3361111
tp366
sI317
(VIndianapolis, IN
p367
F39.7685155
F-86.1580736
tp368
sI318
(VShreveport, LA
p369
F32.5251516
F-93.7501789
tp370
sI319
(VCedar Rapids, IA
p371
F41.9778795
F-91.6656232
tp372
sI320
(VSaint Cloud, MN
p373
F45.5538889
F-94.1702778
tp374
sI321
(VMelbourne, FL
p375
F28.0836269
F-80.60810889999999
tp376
sI863
(VLakeland, FL
p377
F28.0394654
F-81.9498042
tp378
sI323
(VLos Angeles, CA
p379
F34.0522342
F-118.2436849
tp380
sI325
(VMenard, TX
p381
F30.91767359999999
F-99.7864587
tp382
sI330
(VAkron, OH
p383
F41.0814447
F-81.51900529999999
tp384
sI331
(VElmhurst, IL
p385
F41.8994744
F-87.9403418
tp386
sI845
(VSpring Valley, NY
p387
F41.1131514
F-74.0437521
tp388
sI334
(VMontgomery, AL
p389
F32.3668052
F-86.2999689
tp390
sI847
(VArlington Hts, IL
p391
F42.0883603
F-87.98062650000001
tp392
sI336
(VGreensboro, NC
p393
F36.0726354
F-79.7919754
tp394
sI337
(VLafayette, LA
p395
F30.2240897
F-92.0198427
tp396
sI817
(VFort Worth, TX
p397
F32.725409
F-97.3208496
tp398
sI339
(VHingham, MA
p399
F42.2418172
F-70.889759
tp400
sI340
(VCharlotte Amalie, VI
p401
F18.3419004
F-64.9307007
tp402
sI856
(VMoorestown, NJ
p403
F39.9688817
F-74.948886
tp404
sI740
(VZanesville, OH
p405
F39.9403453
F-82.0131924
tp406
sI858
(VSan Diego, CA
p407
F32.7153292
F-117.1572551
tp408
sI347
(VRidgewood, NY
p409
F40.7108476
F-73.8977693
tp410
sI860
(VHartford, CT
p411
F41.76371109999999
F-72.6850932
tp412
sI862
(VPompton Lakes, NJ
p413
F41.0053753
F-74.2907041
tp414
sI351
(VDanvers, MA
p415
F42.5750009
F-70.93212199999999
tp416
sI352
(VGainesville, FL
p417
F29.6516344
F-82.32482619999999
tp418
sI865
(VKnoxville, TN
p419
F35.9606384
F-83.9207392
tp420
sI867
(VWekweti, NT
p421
F64.1173376
F-114.1863525
tp422
sI870
(VJonesboro, AR
p423
F35.84229670000001
F-90.704279
tp424
sI913
(VKansas city, KS
p425
F39.114053
F-94.6274636
tp426
sI360
(VVancouver, WA
p427
F45.6387281
F-122.6614861
tp428
sI361
(VCorpus Christi, TX
p429
F27.8005828
F-97.39638099999999
tp430
sI914
(VYonkers, NY
p431
F40.9312099
F-73.89874689999999
tp432
sI878
(VPennsylvania
p433
F41.2033216
F-77.1945247
tp434
sI915
(VEl Paso, TX
p435
F31.7587198
F-106.4869314
tp436
sI830
(VNew Braunfels, TX
p437
F29.7030024
F-98.1244531
tp438
sI916
(VSacramento, CA
p439
F38.5815719
F-121.4943996
tp440
sI831
(VSanta Cruz, CA
p441
F36.9741171
F-122.0307963
tp442
sI917
(VNew York, NY
p443
F40.7143528
F-74.00597309999999
tp444
sI385
(VProvo, UT
p445
F40.2338438
F-111.6585337
tp446
sI386
(VDaytona Beach, FL
p447
F29.2108147
F-81.0228331
tp448
sI901
(VMemphis, TN
p449
F35.1495343
F-90.0489801
tp450
sI902
(VGeorgetown, PE
p451
F46.1843723
F-62.5335534
tp452
sI903
(VTyler, TX
p453
F32.3512601
F-95.30106239999999
tp454
sI904
(VJacksonville, FL
p455
F30.3321838
F-81.65565099999999
tp456
sI905
(VWellandport, ON
p457
F43.005154
F-79.482089
tp458
sI906
(VMarquette, MI
p459
F46.5745856
F-87.4644459
tp460
sI907
(VAnchorage, AK
p461
F61.2180556
F-149.9002778
tp462
sI908
(VPlainfield, NJ
p463
F40.6337136
F-74.4073736
tp464
sI909
(VSan Bernardino, CA
p465
F34.1083449
F-117.2897652
tp466
sI910
(VFayetteville, NC
p467
F35.0526641
F-78.87835849999999
tp468
sI912
(VSavannah, GA
p469
F32.0835407
F-81.09983419999999
tp470
sI401
(VProvidence, RI
p471
F41.8239891
F-71.4128343
tp472
sI402
(VOmaha, NE
p473
F41.2523634
F-95.99798829999999
tp474
sI403
(VRalston, AB
p475
F50.250844
F-111.173082
tp476
sI404
(VAtlanta, GA
p477
F33.7489954
F-84.3879824
tp478
sI405
(VOklahoma city, OK
p479
F35.4675602
F-97.5164276
tp480
sI406
(VBillings, MT
p481
F45.7832856
F-108.5006904
tp482
sI407
(VOrlando, FL
p483
F28.5383355
F-81.3792365
tp484
sI408
(VSan Jose, CA
p485
F37.3393857
F-121.8949555
tp486
sI409
(VBeaumont, TX
p487
F30.080174
F-94.1265562
tp488
sI410
(VBaltimore, MD
p489
F39.2903848
F-76.6121893
tp490
sI412
(VPittsburgh, PA
p491
F40.44062479999999
F-79.9958864
tp492
sI413
(VSpringfield, MA
p493
F42.1014831
F-72.589811
tp494
sI414
(VMilwaukee, WI
p495
F43.0389025
F-87.9064736
tp496
sI415
(VSan Francisco, CA
p497
F37.7749295
F-122.4194155
tp498
sI416
(VToronto, ON
p499
F43.653226
F-79.3831843
tp500
sI417
(VSpringfield, MO
p501
F37.2089572
F-93.29229889999999
tp502
sI418
(VRiviere Du Loup, QC
p503
F47.835957
F-69.5359854
tp504
sI419
(VToledo, OH
p505
F41.6639383
F-83.55521200000001
tp506
sI423
(VChattanooga, TN
p507
F35.0456297
F-85.3096801
tp508
sI424
(VHawthorne, CA
p509
F33.9164032
F-118.3525748
tp510
sI425
(VKirkland, WA
p511
F47.6814875
F-122.2087353
tp512
sI938
(VRed Bay, AL
p513
F34.4398202
F-88.1408747
tp514
sI939
(VAdjuntas, PR
p515
F18.1967468
F-66.7367345
tp516
sI940
(VWichita Falls, TX
p517
F33.9137085
F-98.4933873
tp518
sI941
(VSarasota, FL
p519
F27.3364347
F-82.53065269999999
tp520
sI430
(VTexarkana, TX
p521
F33.425125
F-94.04768820000001
tp522
sI925
(VWalnut Creek, CA
p523
F37.9063131
F-122.064963
tp524
sI432
(VBalmorhea, TX
p525
F30.9843123
F-103.7446257
tp526
sI434
(VLynchburg, VA
p527
F37.4137536
F-79.14224639999999
tp528
sI435
(VSt George, UT
p529
F37.0952778
F-113.5780556
tp530
sI949
(VToro, CA
p531
F33.416699
F-116.1341712
tp532
sI918
(VTulsa, OK
p533
F36.1539816
F-95.99277500000001
tp534
sI951
(VMurrieta, CA
p535
F33.5539143
F-117.2139232
tp536
sI440
(VCleveland, OH
p537
F41.4994954
F-81.6954088
tp538
sI442
(VOceanside, CA
p539
F33.1958696
F-117.3794834
tp540
sI443
(VPikesville, MD
p541
F39.3742729
F-76.7224727
tp542
sI956
(VLaredo, TX
p543
F27.506407
F-99.5075421
tp544
sI816
(VKansas city, MO
p545
F39.0997265
F-94.5785667
tp546
sI928
(VYuma, AZ
p547
F32.6926512
F-114.6276916
tp548
sI450
(VFarnham, QC
p549
F45.283748
F-72.976764
tp550
sI843
(VCharleston, SC
p551
F32.7765656
F-79.93092159999999
tp552
sI828
(VAsheville, NC
p553
F35.6009452
F-82.55401499999999
tp554
sI929
(VFlushing, NY
p555
F40.7658085
F-73.83308439999999
tp556
sI714
(VSanta Ana, CA
p557
F33.7455731
F-117.8678338
tp558
sI458
(VOregon
p559
F43.8041334
F-120.5542012
tp560
sI971
(VPortland, OR
p561
F45.5234515
F-122.6762071
tp562
sI972
(VDallas, TX
p563
F32.802955
F-96.769923
tp564
sI973
(VNewark, NJ
p565
F40.735657
F-74.1723667
tp566
sI970
(VFt Collins, CO
p567
F40.5852602
F-105.084423
tp568
sI760
(VVista, CA
p569
F33.2000368
F-117.2425355
tp570
sI954
(VFort Lauderdale, FL
p571
F26.1223084
F-80.14337859999999
tp572
sI931
(VClarksville, TN
p573
F36.5297706
F-87.3594528
tp574
sI919
(VRaleigh, NC
p575
F35.772096
F-78.6386145
tp576
sI469
(VPlano, TX
p577
F33.0198431
F-96.6988856
tp578
sI470
(VGeorgia
p579
F32.1574351
F-82.90712300000001
tp580
sI719
(VColorado Springs, CO
p581
F38.8338816
F-104.8213634
tp582
sI985
(VHouma, LA
p583
F29.5957696
F-90.71953479999999
tp584
sI475
(VNew Haven, CT
p585
F41.3081527
F-72.9281577
tp586
sI762
(VDalton, GA
p587
F34.7698021
F-84.9702228
tp588
sI478
(VMacon, GA
p589
F32.8406946
F-83.6324022
tp590
sI479
(VDover, AR
p591
F35.4014712
F-93.1143407
tp592
sI480
(VMesa, AZ
p593
F33.4151843
F-111.8314724
tp594
sI848
(VMetuchen, NJ
p595
F40.5431598
F-74.3632049
tp596
sI763
(VMinneapolis, MN
p597
F44.983334
F-93.26666999999999
tp598
sI484
(VExton, PA
p599
F40.0325817
F-75.6274583
tp600
sI715
(VEau Claire, WI
p601
F44.811349
F-91.4984941
tp602
sI818
(VVan Nuys, CA
p603
F34.1898566
F-118.451357
tp604
sI850
(VTallahassee, FL
p605
F30.4382559
F-84.28073289999999
tp606
sI765
(VMuncie, IN
p607
F40.1933767
F-85.3863599
tp608
sI936
(VConroe, TX
p609
F30.3118769
F-95.45605119999999
tp610
sI920
(VGreen Bay, WI
p611
F44.51915899999999
F-88.019826
tp612
sI501
(VLittle Rock, AR
p613
F34.7464809
F-92.28959479999999
tp614
sI502
(VLouisville, KY
p615
F38.2526647
F-85.7584557
tp616
sI503
(VPortland, OR
p617
F45.5234515
F-122.6762071
tp618
sI504
(VNew Orleans, LA
p619
F29.95106579999999
F-90.0715323
tp620
sI505
(VAlbuquerque, NM
p621
F35.0844909
F-106.6511367
tp622
sI506
(VTracadie, NB
p623
F47.5144444
F-64.9180556
tp624
sI507
(VRochester, MN
p625
F44.0216306
F-92.4698992
tp626
sI508
(VWorcester, MA
p627
F42.2625932
F-71.8022934
tp628
sI509
(VSpokane, WA
p629
F47.6587802
F-117.4260466
tp630
sI510
(VOakland, CA
p631
F37.8043637
F-122.2711137
tp632
s.